target datalayout = "e-m:e-p270:32:32-p271:32:32-p272:64:64-i64:64-i128:128-f80:128-n8:16:32:64-S128"
target triple = "x86_64-pc-linux-gnu"

%struct._generic_SUNLinearSolver = type { ptr, ptr, ptr }
%struct._SUNLinearSolverContent_SPFGMR = type { i32, i32, i32, i32, i32, i32, double, i32, ptr, ptr, ptr, ptr, ptr, ptr, ptr, ptr, ptr, ptr, ptr, ptr, ptr, ptr, ptr, ptr }

; Function Attrs: nounwind uwtable
define i32 @SUNLinSolFree_SPFGMR(ptr noundef %0) #0 {
  %2 = alloca i32, align 4
  %3 = alloca ptr, align 8
  %4 = alloca i32, align 4
  %5 = alloca i32, align 4
  store ptr %0, ptr %3, align 8, !tbaa !12
  call void @llvm.lifetime.start.p0(i64 4, ptr %4) #6
  %6 = load ptr, ptr %3, align 8, !tbaa !12
  %7 = icmp eq ptr %6, null
  br i1 %7, label %8, label %9

8:                                                ; preds = %1
  store i32 0, ptr %2, align 4
  store i32 1, ptr %5, align 4
  br label %240

9:                                                ; preds = %1
  %10 = load ptr, ptr %3, align 8, !tbaa !12
  %11 = getelementptr inbounds nuw %struct._generic_SUNLinearSolver, ptr %10, i32 0, i32 0
  %12 = load ptr, ptr %11, align 8, !tbaa !35
  %13 = icmp ne ptr %12, null
  br i1 %13, label %14, label %227

14:                                               ; preds = %9
  %15 = load ptr, ptr %3, align 8, !tbaa !12
  %16 = getelementptr inbounds nuw %struct._generic_SUNLinearSolver, ptr %15, i32 0, i32 0
  %17 = load ptr, ptr %16, align 8, !tbaa !35
  %18 = getelementptr inbounds nuw %struct._SUNLinearSolverContent_SPFGMR, ptr %17, i32 0, i32 19
  %19 = load ptr, ptr %18, align 8, !tbaa !49
  %20 = icmp ne ptr %19, null
  br i1 %20, label %21, label %31

21:                                               ; preds = %14
  %22 = load ptr, ptr %3, align 8, !tbaa !12
  %23 = getelementptr inbounds nuw %struct._generic_SUNLinearSolver, ptr %22, i32 0, i32 0
  %24 = load ptr, ptr %23, align 8, !tbaa !35
  %25 = getelementptr inbounds nuw %struct._SUNLinearSolverContent_SPFGMR, ptr %24, i32 0, i32 19
  %26 = load ptr, ptr %25, align 8, !tbaa !49
  call void @N_VDestroy(ptr noundef %26)
  %27 = load ptr, ptr %3, align 8, !tbaa !12
  %28 = getelementptr inbounds nuw %struct._generic_SUNLinearSolver, ptr %27, i32 0, i32 0
  %29 = load ptr, ptr %28, align 8, !tbaa !35
  %30 = getelementptr inbounds nuw %struct._SUNLinearSolverContent_SPFGMR, ptr %29, i32 0, i32 19
  store ptr null, ptr %30, align 8, !tbaa !49
  br label %31

31:                                               ; preds = %21, %14
  %32 = load ptr, ptr %3, align 8, !tbaa !12
  %33 = getelementptr inbounds nuw %struct._generic_SUNLinearSolver, ptr %32, i32 0, i32 0
  %34 = load ptr, ptr %33, align 8, !tbaa !35
  %35 = getelementptr inbounds nuw %struct._SUNLinearSolverContent_SPFGMR, ptr %34, i32 0, i32 21
  %36 = load ptr, ptr %35, align 8, !tbaa !50
  %37 = icmp ne ptr %36, null
  br i1 %37, label %38, label %48

38:                                               ; preds = %31
  %39 = load ptr, ptr %3, align 8, !tbaa !12
  %40 = getelementptr inbounds nuw %struct._generic_SUNLinearSolver, ptr %39, i32 0, i32 0
  %41 = load ptr, ptr %40, align 8, !tbaa !35
  %42 = getelementptr inbounds nuw %struct._SUNLinearSolverContent_SPFGMR, ptr %41, i32 0, i32 21
  %43 = load ptr, ptr %42, align 8, !tbaa !50
  call void @N_VDestroy(ptr noundef %43)
  %44 = load ptr, ptr %3, align 8, !tbaa !12
  %45 = getelementptr inbounds nuw %struct._generic_SUNLinearSolver, ptr %44, i32 0, i32 0
  %46 = load ptr, ptr %45, align 8, !tbaa !35
  %47 = getelementptr inbounds nuw %struct._SUNLinearSolverContent_SPFGMR, ptr %46, i32 0, i32 21
  store ptr null, ptr %47, align 8, !tbaa !50
  br label %48

48:                                               ; preds = %38, %31
  %49 = load ptr, ptr %3, align 8, !tbaa !12
  %50 = getelementptr inbounds nuw %struct._generic_SUNLinearSolver, ptr %49, i32 0, i32 0
  %51 = load ptr, ptr %50, align 8, !tbaa !35
  %52 = getelementptr inbounds nuw %struct._SUNLinearSolverContent_SPFGMR, ptr %51, i32 0, i32 15
  %53 = load ptr, ptr %52, align 8, !tbaa !58
  %54 = icmp ne ptr %53, null
  br i1 %54, label %55, label %71

55:                                               ; preds = %48
  %56 = load ptr, ptr %3, align 8, !tbaa !12
  %57 = getelementptr inbounds nuw %struct._generic_SUNLinearSolver, ptr %56, i32 0, i32 0
  %58 = load ptr, ptr %57, align 8, !tbaa !35
  %59 = getelementptr inbounds nuw %struct._SUNLinearSolverContent_SPFGMR, ptr %58, i32 0, i32 15
  %60 = load ptr, ptr %59, align 8, !tbaa !58
  %61 = load ptr, ptr %3, align 8, !tbaa !12
  %62 = getelementptr inbounds nuw %struct._generic_SUNLinearSolver, ptr %61, i32 0, i32 0
  %63 = load ptr, ptr %62, align 8, !tbaa !35
  %64 = getelementptr inbounds nuw %struct._SUNLinearSolverContent_SPFGMR, ptr %63, i32 0, i32 0
  %65 = load i32, ptr %64, align 8, !tbaa !42
  %66 = add nsw i32 %65, 1
  call void @N_VDestroyVectorArray(ptr noundef %60, i32 noundef %66)
  %67 = load ptr, ptr %3, align 8, !tbaa !12
  %68 = getelementptr inbounds nuw %struct._generic_SUNLinearSolver, ptr %67, i32 0, i32 0
  %69 = load ptr, ptr %68, align 8, !tbaa !35
  %70 = getelementptr inbounds nuw %struct._SUNLinearSolverContent_SPFGMR, ptr %69, i32 0, i32 15
  store ptr null, ptr %70, align 8, !tbaa !58
  br label %71

71:                                               ; preds = %55, %48
  %72 = load ptr, ptr %3, align 8, !tbaa !12
  %73 = getelementptr inbounds nuw %struct._generic_SUNLinearSolver, ptr %72, i32 0, i32 0
  %74 = load ptr, ptr %73, align 8, !tbaa !35
  %75 = getelementptr inbounds nuw %struct._SUNLinearSolverContent_SPFGMR, ptr %74, i32 0, i32 16
  %76 = load ptr, ptr %75, align 8, !tbaa !59
  %77 = icmp ne ptr %76, null
  br i1 %77, label %78, label %94

78:                                               ; preds = %71
  %79 = load ptr, ptr %3, align 8, !tbaa !12
  %80 = getelementptr inbounds nuw %struct._generic_SUNLinearSolver, ptr %79, i32 0, i32 0
  %81 = load ptr, ptr %80, align 8, !tbaa !35
  %82 = getelementptr inbounds nuw %struct._SUNLinearSolverContent_SPFGMR, ptr %81, i32 0, i32 16
  %83 = load ptr, ptr %82, align 8, !tbaa !59
  %84 = load ptr, ptr %3, align 8, !tbaa !12
  %85 = getelementptr inbounds nuw %struct._generic_SUNLinearSolver, ptr %84, i32 0, i32 0
  %86 = load ptr, ptr %85, align 8, !tbaa !35
  %87 = getelementptr inbounds nuw %struct._SUNLinearSolverContent_SPFGMR, ptr %86, i32 0, i32 0
  %88 = load i32, ptr %87, align 8, !tbaa !42
  %89 = add nsw i32 %88, 1
  call void @N_VDestroyVectorArray(ptr noundef %83, i32 noundef %89)
  %90 = load ptr, ptr %3, align 8, !tbaa !12
  %91 = getelementptr inbounds nuw %struct._generic_SUNLinearSolver, ptr %90, i32 0, i32 0
  %92 = load ptr, ptr %91, align 8, !tbaa !35
  %93 = getelementptr inbounds nuw %struct._SUNLinearSolverContent_SPFGMR, ptr %92, i32 0, i32 16
  store ptr null, ptr %93, align 8, !tbaa !59
  br label %94

94:                                               ; preds = %78, %71
  %95 = load ptr, ptr %3, align 8, !tbaa !12
  %96 = getelementptr inbounds nuw %struct._generic_SUNLinearSolver, ptr %95, i32 0, i32 0
  %97 = load ptr, ptr %96, align 8, !tbaa !35
  %98 = getelementptr inbounds nuw %struct._SUNLinearSolverContent_SPFGMR, ptr %97, i32 0, i32 17
  %99 = load ptr, ptr %98, align 8, !tbaa !60
  %100 = icmp ne ptr %99, null
  br i1 %100, label %101, label %153

101:                                              ; preds = %94
  store i32 0, ptr %4, align 4, !tbaa !8
  br label %102

102:                                              ; preds = %140, %101
  %103 = load i32, ptr %4, align 4, !tbaa !8
  %104 = load ptr, ptr %3, align 8, !tbaa !12
  %105 = getelementptr inbounds nuw %struct._generic_SUNLinearSolver, ptr %104, i32 0, i32 0
  %106 = load ptr, ptr %105, align 8, !tbaa !35
  %107 = getelementptr inbounds nuw %struct._SUNLinearSolverContent_SPFGMR, ptr %106, i32 0, i32 0
  %108 = load i32, ptr %107, align 8, !tbaa !42
  %109 = icmp sle i32 %103, %108
  br i1 %109, label %110, label %143

110:                                              ; preds = %102
  %111 = load ptr, ptr %3, align 8, !tbaa !12
  %112 = getelementptr inbounds nuw %struct._generic_SUNLinearSolver, ptr %111, i32 0, i32 0
  %113 = load ptr, ptr %112, align 8, !tbaa !35
  %114 = getelementptr inbounds nuw %struct._SUNLinearSolverContent_SPFGMR, ptr %113, i32 0, i32 17
  %115 = load ptr, ptr %114, align 8, !tbaa !60
  %116 = load i32, ptr %4, align 4, !tbaa !8
  %117 = sext i32 %116 to i64
  %118 = getelementptr inbounds ptr, ptr %115, i64 %117
  %119 = load ptr, ptr %118, align 8, !tbaa !67
  %120 = icmp ne ptr %119, null
  br i1 %120, label %121, label %139

121:                                              ; preds = %110
  %122 = load ptr, ptr %3, align 8, !tbaa !12
  %123 = getelementptr inbounds nuw %struct._generic_SUNLinearSolver, ptr %122, i32 0, i32 0
  %124 = load ptr, ptr %123, align 8, !tbaa !35
  %125 = getelementptr inbounds nuw %struct._SUNLinearSolverContent_SPFGMR, ptr %124, i32 0, i32 17
  %126 = load ptr, ptr %125, align 8, !tbaa !60
  %127 = load i32, ptr %4, align 4, !tbaa !8
  %128 = sext i32 %127 to i64
  %129 = getelementptr inbounds ptr, ptr %126, i64 %128
  %130 = load ptr, ptr %129, align 8, !tbaa !67
  call void @free(ptr noundef %130) #6
  %131 = load ptr, ptr %3, align 8, !tbaa !12
  %132 = getelementptr inbounds nuw %struct._generic_SUNLinearSolver, ptr %131, i32 0, i32 0
  %133 = load ptr, ptr %132, align 8, !tbaa !35
  %134 = getelementptr inbounds nuw %struct._SUNLinearSolverContent_SPFGMR, ptr %133, i32 0, i32 17
  %135 = load ptr, ptr %134, align 8, !tbaa !60
  %136 = load i32, ptr %4, align 4, !tbaa !8
  %137 = sext i32 %136 to i64
  %138 = getelementptr inbounds ptr, ptr %135, i64 %137
  store ptr null, ptr %138, align 8, !tbaa !67
  br label %139

139:                                              ; preds = %121, %110
  br label %140

140:                                              ; preds = %139
  %141 = load i32, ptr %4, align 4, !tbaa !8
  %142 = add nsw i32 %141, 1
  store i32 %142, ptr %4, align 4, !tbaa !8
  br label %102

143:                                              ; preds = %102
  %144 = load ptr, ptr %3, align 8, !tbaa !12
  %145 = getelementptr inbounds nuw %struct._generic_SUNLinearSolver, ptr %144, i32 0, i32 0
  %146 = load ptr, ptr %145, align 8, !tbaa !35
  %147 = getelementptr inbounds nuw %struct._SUNLinearSolverContent_SPFGMR, ptr %146, i32 0, i32 17
  %148 = load ptr, ptr %147, align 8, !tbaa !60
  call void @free(ptr noundef %148) #6
  %149 = load ptr, ptr %3, align 8, !tbaa !12
  %150 = getelementptr inbounds nuw %struct._generic_SUNLinearSolver, ptr %149, i32 0, i32 0
  %151 = load ptr, ptr %150, align 8, !tbaa !35
  %152 = getelementptr inbounds nuw %struct._SUNLinearSolverContent_SPFGMR, ptr %151, i32 0, i32 17
  store ptr null, ptr %152, align 8, !tbaa !60
  br label %153

153:                                              ; preds = %143, %94
  %154 = load ptr, ptr %3, align 8, !tbaa !12
  %155 = getelementptr inbounds nuw %struct._generic_SUNLinearSolver, ptr %154, i32 0, i32 0
  %156 = load ptr, ptr %155, align 8, !tbaa !35
  %157 = getelementptr inbounds nuw %struct._SUNLinearSolverContent_SPFGMR, ptr %156, i32 0, i32 18
  %158 = load ptr, ptr %157, align 8, !tbaa !61
  %159 = icmp ne ptr %158, null
  br i1 %159, label %160, label %170

160:                                              ; preds = %153
  %161 = load ptr, ptr %3, align 8, !tbaa !12
  %162 = getelementptr inbounds nuw %struct._generic_SUNLinearSolver, ptr %161, i32 0, i32 0
  %163 = load ptr, ptr %162, align 8, !tbaa !35
  %164 = getelementptr inbounds nuw %struct._SUNLinearSolverContent_SPFGMR, ptr %163, i32 0, i32 18
  %165 = load ptr, ptr %164, align 8, !tbaa !61
  call void @free(ptr noundef %165) #6
  %166 = load ptr, ptr %3, align 8, !tbaa !12
  %167 = getelementptr inbounds nuw %struct._generic_SUNLinearSolver, ptr %166, i32 0, i32 0
  %168 = load ptr, ptr %167, align 8, !tbaa !35
  %169 = getelementptr inbounds nuw %struct._SUNLinearSolverContent_SPFGMR, ptr %168, i32 0, i32 18
  store ptr null, ptr %169, align 8, !tbaa !61
  br label %170

170:                                              ; preds = %160, %153
  %171 = load ptr, ptr %3, align 8, !tbaa !12
  %172 = getelementptr inbounds nuw %struct._generic_SUNLinearSolver, ptr %171, i32 0, i32 0
  %173 = load ptr, ptr %172, align 8, !tbaa !35
  %174 = getelementptr inbounds nuw %struct._SUNLinearSolverContent_SPFGMR, ptr %173, i32 0, i32 20
  %175 = load ptr, ptr %174, align 8, !tbaa !62
  %176 = icmp ne ptr %175, null
  br i1 %176, label %177, label %187

177:                                              ; preds = %170
  %178 = load ptr, ptr %3, align 8, !tbaa !12
  %179 = getelementptr inbounds nuw %struct._generic_SUNLinearSolver, ptr %178, i32 0, i32 0
  %180 = load ptr, ptr %179, align 8, !tbaa !35
  %181 = getelementptr inbounds nuw %struct._SUNLinearSolverContent_SPFGMR, ptr %180, i32 0, i32 20
  %182 = load ptr, ptr %181, align 8, !tbaa !62
  call void @free(ptr noundef %182) #6
  %183 = load ptr, ptr %3, align 8, !tbaa !12
  %184 = getelementptr inbounds nuw %struct._generic_SUNLinearSolver, ptr %183, i32 0, i32 0
  %185 = load ptr, ptr %184, align 8, !tbaa !35
  %186 = getelementptr inbounds nuw %struct._SUNLinearSolverContent_SPFGMR, ptr %185, i32 0, i32 20
  store ptr null, ptr %186, align 8, !tbaa !62
  br label %187

187:                                              ; preds = %177, %170
  %188 = load ptr, ptr %3, align 8, !tbaa !12
  %189 = getelementptr inbounds nuw %struct._generic_SUNLinearSolver, ptr %188, i32 0, i32 0
  %190 = load ptr, ptr %189, align 8, !tbaa !35
  %191 = getelementptr inbounds nuw %struct._SUNLinearSolverContent_SPFGMR, ptr %190, i32 0, i32 22
  %192 = load ptr, ptr %191, align 8, !tbaa !63
  %193 = icmp ne ptr %192, null
  br i1 %193, label %194, label %204

194:                                              ; preds = %187
  %195 = load ptr, ptr %3, align 8, !tbaa !12
  %196 = getelementptr inbounds nuw %struct._generic_SUNLinearSolver, ptr %195, i32 0, i32 0
  %197 = load ptr, ptr %196, align 8, !tbaa !35
  %198 = getelementptr inbounds nuw %struct._SUNLinearSolverContent_SPFGMR, ptr %197, i32 0, i32 22
  %199 = load ptr, ptr %198, align 8, !tbaa !63
  call void @free(ptr noundef %199) #6
  %200 = load ptr, ptr %3, align 8, !tbaa !12
  %201 = getelementptr inbounds nuw %struct._generic_SUNLinearSolver, ptr %200, i32 0, i32 0
  %202 = load ptr, ptr %201, align 8, !tbaa !35
  %203 = getelementptr inbounds nuw %struct._SUNLinearSolverContent_SPFGMR, ptr %202, i32 0, i32 22
  store ptr null, ptr %203, align 8, !tbaa !63
  br label %204

204:                                              ; preds = %194, %187
  %205 = load ptr, ptr %3, align 8, !tbaa !12
  %206 = getelementptr inbounds nuw %struct._generic_SUNLinearSolver, ptr %205, i32 0, i32 0
  %207 = load ptr, ptr %206, align 8, !tbaa !35
  %208 = getelementptr inbounds nuw %struct._SUNLinearSolverContent_SPFGMR, ptr %207, i32 0, i32 23
  %209 = load ptr, ptr %208, align 8, !tbaa !64
  %210 = icmp ne ptr %209, null
  br i1 %210, label %211, label %221

211:                                              ; preds = %204
  %212 = load ptr, ptr %3, align 8, !tbaa !12
  %213 = getelementptr inbounds nuw %struct._generic_SUNLinearSolver, ptr %212, i32 0, i32 0
  %214 = load ptr, ptr %213, align 8, !tbaa !35
  %215 = getelementptr inbounds nuw %struct._SUNLinearSolverContent_SPFGMR, ptr %214, i32 0, i32 23
  %216 = load ptr, ptr %215, align 8, !tbaa !64
  call void @free(ptr noundef %216) #6
  %217 = load ptr, ptr %3, align 8, !tbaa !12
  %218 = getelementptr inbounds nuw %struct._generic_SUNLinearSolver, ptr %217, i32 0, i32 0
  %219 = load ptr, ptr %218, align 8, !tbaa !35
  %220 = getelementptr inbounds nuw %struct._SUNLinearSolverContent_SPFGMR, ptr %219, i32 0, i32 23
  store ptr null, ptr %220, align 8, !tbaa !64
  br label %221

221:                                              ; preds = %211, %204
  %222 = load ptr, ptr %3, align 8, !tbaa !12
  %223 = getelementptr inbounds nuw %struct._generic_SUNLinearSolver, ptr %222, i32 0, i32 0
  %224 = load ptr, ptr %223, align 8, !tbaa !35
  call void @free(ptr noundef %224) #6
  %225 = load ptr, ptr %3, align 8, !tbaa !12
  %226 = getelementptr inbounds nuw %struct._generic_SUNLinearSolver, ptr %225, i32 0, i32 0
  store ptr null, ptr %226, align 8, !tbaa !35
  br label %227

227:                                              ; preds = %221, %9
  %228 = load ptr, ptr %3, align 8, !tbaa !12
  %229 = getelementptr inbounds nuw %struct._generic_SUNLinearSolver, ptr %228, i32 0, i32 1
  %230 = load ptr, ptr %229, align 8, !tbaa !14
  %231 = icmp ne ptr %230, null
  br i1 %231, label %232, label %238

232:                                              ; preds = %227
  %233 = load ptr, ptr %3, align 8, !tbaa !12
  %234 = getelementptr inbounds nuw %struct._generic_SUNLinearSolver, ptr %233, i32 0, i32 1
  %235 = load ptr, ptr %234, align 8, !tbaa !14
  call void @free(ptr noundef %235) #6
  %236 = load ptr, ptr %3, align 8, !tbaa !12
  %237 = getelementptr inbounds nuw %struct._generic_SUNLinearSolver, ptr %236, i32 0, i32 1
  store ptr null, ptr %237, align 8, !tbaa !14
  br label %238

238:                                              ; preds = %232, %227
  %239 = load ptr, ptr %3, align 8, !tbaa !12
  call void @free(ptr noundef %239) #6
  store ptr null, ptr %3, align 8, !tbaa !12
  store i32 0, ptr %2, align 4
  store i32 1, ptr %5, align 4
  br label %240

240:                                              ; preds = %238, %8
  call void @llvm.lifetime.end.p0(i64 4, ptr %4) #6
  %241 = load i32, ptr %2, align 4
  ret i32 %241
}