; Function Attrs: nounwind uwtable
define noundef i32 @SUNLinSolFree_SPFGMR(ptr noundef captures(address_is_null) %0) #0 {
  %2 = icmp eq ptr %0, null
  br i1 %2, label %94, label %3

3:                                                ; preds = %1
  %4 = load ptr, ptr %0, align 8, !tbaa !26
  %.not = icmp eq ptr %4, null
  br i1 %.not, label %89, label %5

5:                                                ; preds = %3
  %6 = getelementptr inbounds nuw i8, ptr %4, i64 128
  %7 = load ptr, ptr %6, align 8, !tbaa !38
  %.not59 = icmp eq ptr %7, null
  br i1 %.not59, label %11, label %8

8:                                                ; preds = %5
  tail call void @N_VDestroy(ptr noundef nonnull %7) #12
  %9 = load ptr, ptr %0, align 8, !tbaa !26
  %10 = getelementptr inbounds nuw i8, ptr %9, i64 128
  store ptr null, ptr %10, align 8, !tbaa !38
  br label %11

11:                                               ; preds = %8, %5
  %12 = phi ptr [ %9, %8 ], [ %4, %5 ]
  %13 = getelementptr inbounds nuw i8, ptr %12, i64 144
  %14 = load ptr, ptr %13, align 8, !tbaa !39
  %.not60 = icmp eq ptr %14, null
  br i1 %.not60, label %18, label %15

15:                                               ; preds = %11
  tail call void @N_VDestroy(ptr noundef nonnull %14) #12
  %16 = load ptr, ptr %0, align 8, !tbaa !26
  %17 = getelementptr inbounds nuw i8, ptr %16, i64 144
  store ptr null, ptr %17, align 8, !tbaa !39
  br label %18

18:                                               ; preds = %15, %11
  %19 = phi ptr [ %16, %15 ], [ %12, %11 ]
  %20 = getelementptr inbounds nuw i8, ptr %19, i64 96
  %21 = load ptr, ptr %20, align 8, !tbaa !49
  %.not61 = icmp eq ptr %21, null
  br i1 %.not61, label %27, label %22

22:                                               ; preds = %18
  %23 = load i32, ptr %19, align 8, !tbaa !35
  %24 = add nsw i32 %23, 1
  tail call void @N_VDestroyVectorArray(ptr noundef nonnull %21, i32 noundef %24) #12
  %25 = load ptr, ptr %0, align 8, !tbaa !26
  %26 = getelementptr inbounds nuw i8, ptr %25, i64 96
  store ptr null, ptr %26, align 8, !tbaa !49
  br label %27

27:                                               ; preds = %22, %18
  %28 = phi ptr [ %25, %22 ], [ %19, %18 ]
  %29 = getelementptr inbounds nuw i8, ptr %28, i64 104
  %30 = load ptr, ptr %29, align 8, !tbaa !50
  %.not62 = icmp eq ptr %30, null
  br i1 %.not62, label %36, label %31

31:                                               ; preds = %27
  %32 = load i32, ptr %28, align 8, !tbaa !35
  %33 = add nsw i32 %32, 1
  tail call void @N_VDestroyVectorArray(ptr noundef nonnull %30, i32 noundef %33) #12
  %34 = load ptr, ptr %0, align 8, !tbaa !26
  %35 = getelementptr inbounds nuw i8, ptr %34, i64 104
  store ptr null, ptr %35, align 8, !tbaa !50
  br label %36

36:                                               ; preds = %31, %27
  %37 = phi ptr [ %34, %31 ], [ %28, %27 ]
  %38 = getelementptr inbounds nuw i8, ptr %37, i64 112
  %39 = load ptr, ptr %38, align 8, !tbaa !51
  %.not63 = icmp eq ptr %39, null
  br i1 %.not63, label %59, label %.preheader

.preheader:                                       ; preds = %36
  %40 = load i32, ptr %37, align 8, !tbaa !35
  %.not6471 = icmp slt i32 %40, 0
  br i1 %.not6471, label %._crit_edge, label %.lr.ph

.lr.ph:                                           ; preds = %.preheader, %52
  %41 = phi i32 [ %53, %52 ], [ %40, %.preheader ]
  %42 = phi ptr [ %54, %52 ], [ %37, %.preheader ]
  %indvars.iv = phi i64 [ %indvars.iv.next, %52 ], [ 0, %.preheader ]
  %43 = getelementptr inbounds nuw i8, ptr %42, i64 112
  %44 = load ptr, ptr %43, align 8, !tbaa !51
  %45 = getelementptr inbounds nuw ptr, ptr %44, i64 %indvars.iv
  %46 = load ptr, ptr %45, align 8, !tbaa !52
  %.not70 = icmp eq ptr %46, null
  br i1 %.not70, label %52, label %47

47:                                               ; preds = %.lr.ph
  tail call void @free(ptr noundef nonnull %46) #12
  %48 = load ptr, ptr %0, align 8, !tbaa !26
  %49 = getelementptr inbounds nuw i8, ptr %48, i64 112
  %50 = load ptr, ptr %49, align 8, !tbaa !51
  %51 = getelementptr inbounds nuw ptr, ptr %50, i64 %indvars.iv
  store ptr null, ptr %51, align 8, !tbaa !52
  %.pre = load i32, ptr %48, align 8, !tbaa !35
  br label %52

52:                                               ; preds = %.lr.ph, %47
  %53 = phi i32 [ %41, %.lr.ph ], [ %.pre, %47 ]
  %54 = phi ptr [ %42, %.lr.ph ], [ %48, %47 ]
  %indvars.iv.next = add nuw nsw i64 %indvars.iv, 1
  %55 = sext i32 %53 to i64
  %.not64.not = icmp slt i64 %indvars.iv, %55
  br i1 %.not64.not, label %.lr.ph, label %._crit_edge.loopexit

._crit_edge.loopexit:                             ; preds = %52
  %.phi.trans.insert = getelementptr inbounds nuw i8, ptr %54, i64 112
  %.pre75 = load ptr, ptr %.phi.trans.insert, align 8, !tbaa !51
  br label %._crit_edge

._crit_edge:                                      ; preds = %._crit_edge.loopexit, %.preheader
  %56 = phi ptr [ %39, %.preheader ], [ %.pre75, %._crit_edge.loopexit ]
  tail call void @free(ptr noundef %56) #12
  %57 = load ptr, ptr %0, align 8, !tbaa !26
  %58 = getelementptr inbounds nuw i8, ptr %57, i64 112
  store ptr null, ptr %58, align 8, !tbaa !51
  br label %59

59:                                               ; preds = %._crit_edge, %36
  %60 = phi ptr [ %57, %._crit_edge ], [ %37, %36 ]
  %61 = getelementptr inbounds nuw i8, ptr %60, i64 120
  %62 = load ptr, ptr %61, align 8, !tbaa !53
  %.not65 = icmp eq ptr %62, null
  br i1 %.not65, label %66, label %63

63:                                               ; preds = %59
  tail call void @free(ptr noundef nonnull %62) #12
  %64 = load ptr, ptr %0, align 8, !tbaa !26
  %65 = getelementptr inbounds nuw i8, ptr %64, i64 120
  store ptr null, ptr %65, align 8, !tbaa !53
  br label %66

66:                                               ; preds = %63, %59
  %67 = phi ptr [ %64, %63 ], [ %60, %59 ]
  %68 = getelementptr inbounds nuw i8, ptr %67, i64 136
  %69 = load ptr, ptr %68, align 8, !tbaa !54
  %.not66 = icmp eq ptr %69, null
  br i1 %.not66, label %73, label %70

70:                                               ; preds = %66
  tail call void @free(ptr noundef nonnull %69) #12
  %71 = load ptr, ptr %0, align 8, !tbaa !26
  %72 = getelementptr inbounds nuw i8, ptr %71, i64 136
  store ptr null, ptr %72, align 8, !tbaa !54
  br label %73

73:                                               ; preds = %70, %66
  %74 = phi ptr [ %71, %70 ], [ %67, %66 ]
  %75 = getelementptr inbounds nuw i8, ptr %74, i64 152
  %76 = load ptr, ptr %75, align 8, !tbaa !55
  %.not67 = icmp eq ptr %76, null
  br i1 %.not67, label %80, label %77

77:                                               ; preds = %73
  tail call void @free(ptr noundef nonnull %76) #12
  %78 = load ptr, ptr %0, align 8, !tbaa !26
  %79 = getelementptr inbounds nuw i8, ptr %78, i64 152
  store ptr null, ptr %79, align 8, !tbaa !55
  br label %80

80:                                               ; preds = %77, %73
  %81 = phi ptr [ %78, %77 ], [ %74, %73 ]
  %82 = getelementptr inbounds nuw i8, ptr %81, i64 160
  %83 = load ptr, ptr %82, align 8, !tbaa !56
  %.not68 = icmp eq ptr %83, null
  br i1 %.not68, label %87, label %84

84:                                               ; preds = %80
  tail call void @free(ptr noundef nonnull %83) #12
  %85 = load ptr, ptr %0, align 8, !tbaa !26
  %86 = getelementptr inbounds nuw i8, ptr %85, i64 160
  store ptr null, ptr %86, align 8, !tbaa !56
  br label %87

87:                                               ; preds = %84, %80
  %88 = phi ptr [ %85, %84 ], [ %81, %80 ]
  tail call void @free(ptr noundef nonnull %88) #12
  store ptr null, ptr %0, align 8, !tbaa !26
  br label %89

89:                                               ; preds = %87, %3
  %90 = getelementptr inbounds nuw i8, ptr %0, i64 8
  %91 = load ptr, ptr %90, align 8, !tbaa !3
  %.not69 = icmp eq ptr %91, null
  br i1 %.not69, label %93, label %92

92:                                               ; preds = %89
  tail call void @free(ptr noundef nonnull %91) #12
  br label %93

93:                                               ; preds = %92, %89
  tail call void @free(ptr noundef nonnull %0) #12
  br label %94

94:                                               ; preds = %1, %93
  ret i32 0
}